target datalayout = "e-m:e-p270:32:32-p271:32:32-p272:64:64-i64:64-i128:128-f80:128-n8:16:32:64-S128"
target triple = "x86_64-pc-linux-gnu"

%struct.png_color_struct = type { i8, i8, i8 }

; Function Attrs: nounwind uwtable
define void @png_build_grayscale_palette(i32 noundef %0, ptr noundef %1) #0 {
  %3 = alloca i32, align 4
  %4 = alloca ptr, align 8
  %5 = alloca i32, align 4
  %6 = alloca i32, align 4
  %7 = alloca i32, align 4
  %8 = alloca i32, align 4
  store i32 %0, ptr %3, align 4
  store ptr %1, ptr %4, align 8
  %9 = load ptr, ptr %4, align 8
  %10 = icmp eq ptr %9, null
  br i1 %10, label %11, label %12

11:                                               ; preds = %2
  br label %55

12:                                               ; preds = %2
  %13 = load i32, ptr %3, align 4
  switch i32 %13, label %18 [
    i32 1, label %14
    i32 2, label %15
    i32 4, label %16
    i32 8, label %17
  ]

14:                                               ; preds = %12
  store i32 2, ptr %5, align 4
  store i32 255, ptr %6, align 4
  br label %19

15:                                               ; preds = %12
  store i32 4, ptr %5, align 4
  store i32 85, ptr %6, align 4
  br label %19

16:                                               ; preds = %12
  store i32 16, ptr %5, align 4
  store i32 17, ptr %6, align 4
  br label %19

17:                                               ; preds = %12
  store i32 256, ptr %5, align 4
  store i32 1, ptr %6, align 4
  br label %19

18:                                               ; preds = %12
  store i32 0, ptr %5, align 4
  store i32 0, ptr %6, align 4
  br label %19

19:                                               ; preds = %18, %17, %16, %15, %14
  store i32 0, ptr %7, align 4
  store i32 0, ptr %8, align 4
  br label %20

20:                                               ; preds = %49, %19
  %21 = load i32, ptr %7, align 4
  %22 = load i32, ptr %5, align 4
  %23 = icmp slt i32 %21, %22
  br i1 %23, label %24, label %55

24:                                               ; preds = %20
  %25 = load i32, ptr %8, align 4
  %26 = and i32 %25, 255
  %27 = trunc i32 %26 to i8
  %28 = load ptr, ptr %4, align 8
  %29 = load i32, ptr %7, align 4
  %30 = sext i32 %29 to i64
  %31 = getelementptr inbounds %struct.png_color_struct, ptr %28, i64 %30
  %32 = getelementptr inbounds %struct.png_color_struct, ptr %31, i32 0, i32 0
  store i8 %27, ptr %32, align 1
  %33 = load i32, ptr %8, align 4
  %34 = and i32 %33, 255
  %35 = trunc i32 %34 to i8
  %36 = load ptr, ptr %4, align 8
  %37 = load i32, ptr %7, align 4
  %38 = sext i32 %37 to i64
  %39 = getelementptr inbounds %struct.png_color_struct, ptr %36, i64 %38
  %40 = getelementptr inbounds %struct.png_color_struct, ptr %39, i32 0, i32 1
  store i8 %35, ptr %40, align 1
  %41 = load i32, ptr %8, align 4
  %42 = and i32 %41, 255
  %43 = trunc i32 %42 to i8
  %44 = load ptr, ptr %4, align 8
  %45 = load i32, ptr %7, align 4
  %46 = sext i32 %45 to i64
  %47 = getelementptr inbounds %struct.png_color_struct, ptr %44, i64 %46
  %48 = getelementptr inbounds %struct.png_color_struct, ptr %47, i32 0, i32 2
  store i8 %43, ptr %48, align 1
  br label %49

49:                                               ; preds = %24
  %50 = load i32, ptr %7, align 4
  %51 = add nsw i32 %50, 1
  store i32 %51, ptr %7, align 4
  %52 = load i32, ptr %6, align 4
  %53 = load i32, ptr %8, align 4
  %54 = add nsw i32 %53, %52
  store i32 %54, ptr %8, align 4
  br label %20, !llvm.loop !12

55:                                               ; preds = %20, %11
  ret void
}