; Function Attrs: nofree norecurse nosync nounwind memory(argmem: write) uwtable
define void @png_build_grayscale_palette(i32 noundef %0, ptr noundef writeonly %1) local_unnamed_addr #13 {
  %3 = icmp eq ptr %1, null
  br i1 %3, label %.loopexit, label %4

4:                                                ; preds = %2
  %switch.tableidx = add i32 %0, -1
  %5 = icmp ult i32 %switch.tableidx, 8
  br i1 %5, label %switch.hole_check, label %.loopexit

switch.hole_check:                                ; preds = %4
  %switch.maskindex = trunc nuw i32 %switch.tableidx to i8
  %switch.shifted = lshr i8 -117, %switch.maskindex
  %switch.lobit = trunc i8 %switch.shifted to i1
  br i1 %switch.lobit, label %switch.lookup, label %.loopexit

switch.lookup:                                    ; preds = %switch.hole_check
  %6 = zext nneg i32 %switch.tableidx to i64
  %switch.gep = getelementptr inbounds [8 x i64], ptr @switch.table.png_build_grayscale_palette, i64 0, i64 %6
  %switch.load = load i64, ptr %switch.gep, align 8
  %7 = shl nuw nsw i32 %switch.tableidx, 3
  %switch.shiftamt = zext nneg i32 %7 to i64
  %switch.downshift = lshr i64 144115184082834943, %switch.shiftamt
  %switch.masked = trunc i64 %switch.downshift to i8
  br label %.lr.ph

.lr.ph:                                           ; preds = %switch.lookup, %.lr.ph
  %indvars.iv = phi i64 [ 0, %switch.lookup ], [ %indvars.iv.next, %.lr.ph ]
  %.020 = phi i8 [ 0, %switch.lookup ], [ %11, %.lr.ph ]
  %8 = getelementptr inbounds %struct.png_color_struct, ptr %1, i64 %indvars.iv
  store i8 %.020, ptr %8, align 1
  %9 = getelementptr inbounds i8, ptr %8, i64 1
  store i8 %.020, ptr %9, align 1
  %10 = getelementptr inbounds i8, ptr %8, i64 2
  store i8 %.020, ptr %10, align 1
  %indvars.iv.next = add nuw nsw i64 %indvars.iv, 1
  %11 = add i8 %.020, %switch.masked
  %exitcond.not = icmp eq i64 %indvars.iv.next, %switch.load
  br i1 %exitcond.not, label %.loopexit, label %.lr.ph, !llvm.loop !12

.loopexit:                                        ; preds = %.lr.ph, %switch.hole_check, %4, %2
  ret void
}